target datalayout = "e-m:e-p270:32:32-p271:32:32-p272:64:64-i64:64-i128:128-f80:128-n8:16:32:64-S128"
target triple = "x86_64-pc-linux-gnu"

%struct._GArray = type { ptr, i32 }
%struct.file_type_subtype_info = type { ptr, ptr, ptr, ptr, i8, i64, ptr, ptr, ptr, ptr }
%struct.supported_block_type = type { i32, i32, i64, ptr }
%struct.supported_option_type = type { i32, i32 }

@file_type_subtype_table_arr = internal global ptr null, align 8
@file_type_subtype_table = internal global ptr null, align 8

; Function Attrs: nounwind null_pointer_is_valid sspstrong uwtable
define i32 @wtap_file_type_subtype_supports_option(i32 noundef %0, i32 noundef %1, i32 noundef %2) #2 {
  %4 = alloca i32, align 4
  %5 = alloca i32, align 4
  %6 = alloca i32, align 4
  %7 = alloca i32, align 4
  %8 = alloca i64, align 8
  %9 = alloca ptr, align 8
  %10 = alloca i32, align 4
  %11 = alloca i64, align 8
  %12 = alloca i64, align 8
  %13 = alloca ptr, align 8
  %14 = alloca i64, align 8
  store i32 %0, ptr %5, align 4
  store i32 %1, ptr %6, align 4
  store i32 %2, ptr %7, align 4
  call void @llvm.lifetime.start.p0(i64 8, ptr %8) #12
  call void @llvm.lifetime.start.p0(i64 8, ptr %9) #12
  %15 = load i32, ptr %5, align 4
  %16 = icmp slt i32 %15, 0
  br i1 %16, label %23, label %17

17:                                               ; preds = %3
  %18 = load i32, ptr %5, align 4
  %19 = load ptr, ptr @file_type_subtype_table_arr, align 8
  %20 = getelementptr inbounds nuw %struct._GArray, ptr %19, i32 0, i32 1
  %21 = load i32, ptr %20, align 8
  %22 = icmp sge i32 %18, %21
  br i1 %22, label %23, label %24

23:                                               ; preds = %17, %3
  store i32 0, ptr %4, align 4
  store i32 1, ptr %10, align 4
  br label %103

24:                                               ; preds = %17
  %25 = load ptr, ptr @file_type_subtype_table, align 8
  %26 = load i32, ptr %5, align 4
  %27 = sext i32 %26 to i64
  %28 = getelementptr %struct.file_type_subtype_info, ptr %25, i64 %27
  %29 = getelementptr inbounds nuw %struct.file_type_subtype_info, ptr %28, i32 0, i32 5
  %30 = load i64, ptr %29, align 8
  store i64 %30, ptr %8, align 8
  %31 = load ptr, ptr @file_type_subtype_table, align 8
  %32 = load i32, ptr %5, align 4
  %33 = sext i32 %32 to i64
  %34 = getelementptr %struct.file_type_subtype_info, ptr %31, i64 %33
  %35 = getelementptr inbounds nuw %struct.file_type_subtype_info, ptr %34, i32 0, i32 6
  %36 = load ptr, ptr %35, align 8
  store ptr %36, ptr %9, align 8
  call void @llvm.lifetime.start.p0(i64 8, ptr %11) #12
  store i64 0, ptr %11, align 8
  br label %37

37:                                               ; preds = %97, %24
  %38 = load i64, ptr %11, align 8
  %39 = load i64, ptr %8, align 8
  %40 = icmp ult i64 %38, %39
  br i1 %40, label %42, label %41

41:                                               ; preds = %37
  store i32 2, ptr %10, align 4
  br label %100

42:                                               ; preds = %37
  %43 = load ptr, ptr %9, align 8
  %44 = load i64, ptr %11, align 8
  %45 = getelementptr %struct.supported_block_type, ptr %43, i64 %44
  %46 = getelementptr inbounds nuw %struct.supported_block_type, ptr %45, i32 0, i32 0
  %47 = load i32, ptr %46, align 8
  %48 = load i32, ptr %6, align 4
  %49 = icmp eq i32 %47, %48
  br i1 %49, label %50, label %96

50:                                               ; preds = %42
  %51 = load ptr, ptr %9, align 8
  %52 = load i64, ptr %11, align 8
  %53 = getelementptr %struct.supported_block_type, ptr %51, i64 %52
  %54 = getelementptr inbounds nuw %struct.supported_block_type, ptr %53, i32 0, i32 1
  %55 = load i32, ptr %54, align 4
  %56 = icmp eq i32 %55, 0
  br i1 %56, label %57, label %58

57:                                               ; preds = %50
  store i32 0, ptr %4, align 4
  store i32 1, ptr %10, align 4
  br label %100

58:                                               ; preds = %50
  call void @llvm.lifetime.start.p0(i64 8, ptr %12) #12
  call void @llvm.lifetime.start.p0(i64 8, ptr %13) #12
  %59 = load ptr, ptr %9, align 8
  %60 = load i64, ptr %11, align 8
  %61 = getelementptr %struct.supported_block_type, ptr %59, i64 %60
  %62 = getelementptr inbounds nuw %struct.supported_block_type, ptr %61, i32 0, i32 2
  %63 = load i64, ptr %62, align 8
  store i64 %63, ptr %12, align 8
  %64 = load ptr, ptr %9, align 8
  %65 = load i64, ptr %11, align 8
  %66 = getelementptr %struct.supported_block_type, ptr %64, i64 %65
  %67 = getelementptr inbounds nuw %struct.supported_block_type, ptr %66, i32 0, i32 3
  %68 = load ptr, ptr %67, align 8
  store ptr %68, ptr %13, align 8
  call void @llvm.lifetime.start.p0(i64 8, ptr %14) #12
  store i64 0, ptr %14, align 8
  br label %69

69:                                               ; preds = %89, %58
  %70 = load i64, ptr %14, align 8
  %71 = load i64, ptr %12, align 8
  %72 = icmp ult i64 %70, %71
  br i1 %72, label %74, label %73

73:                                               ; preds = %69
  store i32 5, ptr %10, align 4
  br label %92

74:                                               ; preds = %69
  %75 = load ptr, ptr %13, align 8
  %76 = load i64, ptr %14, align 8
  %77 = getelementptr %struct.supported_option_type, ptr %75, i64 %76
  %78 = getelementptr inbounds nuw %struct.supported_option_type, ptr %77, i32 0, i32 0
  %79 = load i32, ptr %78, align 4
  %80 = load i32, ptr %7, align 4
  %81 = icmp eq i32 %79, %80
  br i1 %81, label %82, label %88

82:                                               ; preds = %74
  %83 = load ptr, ptr %13, align 8
  %84 = load i64, ptr %14, align 8
  %85 = getelementptr %struct.supported_option_type, ptr %83, i64 %84
  %86 = getelementptr inbounds nuw %struct.supported_option_type, ptr %85, i32 0, i32 1
  %87 = load i32, ptr %86, align 4
  store i32 %87, ptr %4, align 4
  store i32 1, ptr %10, align 4
  br label %92

88:                                               ; preds = %74
  br label %89

89:                                               ; preds = %88
  %90 = load i64, ptr %14, align 8
  %91 = add i64 %90, 1
  store i64 %91, ptr %14, align 8
  br label %69, !llvm.loop !28

92:                                               ; preds = %82, %73
  call void @llvm.lifetime.end.p0(i64 8, ptr %14) #12
  %93 = load i32, ptr %10, align 4
  switch i32 %93, label %95 [
    i32 5, label %94
  ]

94:                                               ; preds = %92
  store i32 0, ptr %4, align 4
  store i32 1, ptr %10, align 4
  br label %95

95:                                               ; preds = %94, %92
  call void @llvm.lifetime.end.p0(i64 8, ptr %13) #12
  call void @llvm.lifetime.end.p0(i64 8, ptr %12) #12
  br label %100

96:                                               ; preds = %42
  br label %97

97:                                               ; preds = %96
  %98 = load i64, ptr %11, align 8
  %99 = add i64 %98, 1
  store i64 %99, ptr %11, align 8
  br label %37, !llvm.loop !29

100:                                              ; preds = %95, %57, %41
  call void @llvm.lifetime.end.p0(i64 8, ptr %11) #12
  %101 = load i32, ptr %10, align 4
  switch i32 %101, label %103 [
    i32 2, label %102
  ]

102:                                              ; preds = %100
  store i32 0, ptr %4, align 4
  store i32 1, ptr %10, align 4
  br label %103

103:                                              ; preds = %102, %100, %23
  call void @llvm.lifetime.end.p0(i64 8, ptr %9) #12
  call void @llvm.lifetime.end.p0(i64 8, ptr %8) #12
  %104 = load i32, ptr %4, align 4
  ret i32 %104
}