; Function Attrs: nofree norecurse nosync nounwind null_pointer_is_valid sspstrong memory(read, inaccessiblemem: none) uwtable
define i32 @wtap_file_type_subtype_supports_option(i32 noundef %0, i32 noundef %1, i32 noundef %2) local_unnamed_addr #15 {
  %4 = icmp slt i32 %0, 0
  br i1 %4, label %.loopexit, label %5

5:                                                ; preds = %3
  %6 = load ptr, ptr @file_type_subtype_table_arr, align 8
  %7 = getelementptr inbounds nuw i8, ptr %6, i64 8
  %8 = load i32, ptr %7, align 8
  %.not = icmp slt i32 %0, %8
  br i1 %.not, label %9, label %.loopexit

9:                                                ; preds = %5
  %10 = load ptr, ptr @file_type_subtype_table, align 8
  %11 = zext nneg i32 %0 to i64
  %12 = getelementptr %struct.file_type_subtype_info, ptr %10, i64 %11
  %13 = getelementptr inbounds nuw i8, ptr %12, i64 40
  %14 = load i64, ptr %13, align 8
  %15 = getelementptr inbounds nuw i8, ptr %12, i64 48
  %16 = load ptr, ptr %15, align 8
  %.not3438.not = icmp eq i64 %14, 0
  br i1 %.not3438.not, label %.loopexit, label %.lr.ph

17:                                               ; preds = %.lr.ph
  %18 = add nuw i64 %.03139, 1
  %exitcond.not = icmp eq i64 %18, %14
  br i1 %exitcond.not, label %.loopexit, label %.lr.ph, !llvm.loop !26

.lr.ph:                                           ; preds = %9, %17
  %.03139 = phi i64 [ %18, %17 ], [ 0, %9 ]
  %19 = getelementptr %struct.supported_block_type, ptr %16, i64 %.03139
  %20 = load i32, ptr %19, align 8
  %21 = icmp eq i32 %20, %1
  br i1 %21, label %22, label %17

22:                                               ; preds = %.lr.ph
  %23 = getelementptr inbounds nuw i8, ptr %19, i64 4
  %24 = load i32, ptr %23, align 4
  %25 = icmp eq i32 %24, 0
  br i1 %25, label %.loopexit, label %26

26:                                               ; preds = %22
  %27 = getelementptr inbounds nuw i8, ptr %19, i64 8
  %28 = load i64, ptr %27, align 8
  %29 = getelementptr inbounds nuw i8, ptr %19, i64 16
  %30 = load ptr, ptr %29, align 8
  %.not3340.not = icmp eq i64 %28, 0
  br i1 %.not3340.not, label %.loopexit, label %.lr.ph42

.lr.ph42:                                         ; preds = %26, %37
  %.041 = phi i64 [ %38, %37 ], [ 0, %26 ]
  %31 = getelementptr %struct.supported_option_type, ptr %30, i64 %.041
  %32 = load i32, ptr %31, align 4
  %33 = icmp eq i32 %32, %2
  br i1 %33, label %34, label %37

34:                                               ; preds = %.lr.ph42
  %35 = getelementptr %struct.supported_option_type, ptr %30, i64 %.041, i32 1
  %36 = load i32, ptr %35, align 4
  br label %.loopexit

37:                                               ; preds = %.lr.ph42
  %38 = add nuw i64 %.041, 1
  %exitcond46.not = icmp eq i64 %38, %28
  br i1 %exitcond46.not, label %.loopexit, label %.lr.ph42, !llvm.loop !27

.loopexit:                                        ; preds = %17, %37, %9, %26, %22, %34, %3, %5
  %.027 = phi i32 [ 0, %5 ], [ 0, %3 ], [ 0, %22 ], [ %36, %34 ], [ 0, %26 ], [ 0, %9 ], [ 0, %37 ], [ 0, %17 ]
  ret i32 %.027
}